target datalayout = "e-m:e-p270:32:32-p271:32:32-p272:64:64-i64:64-i128:128-f80:128-n8:16:32:64-S128"
target triple = "x86_64-pc-linux-gnu"

@git_mkstemps_mode.letters = internal constant [63 x i8] c"abcdefghijklmnopqrstuvwxyzABCDEFGHIJKLMNOPQRSTUVWXYZ0123456789\00", align 16
@git_mkstemps_mode.x_pattern = internal constant [7 x i8] c"XXXXXX\00", align 1
@.str.14 = private unnamed_addr constant [46 x i8] c"unable to get random bytes for temporary file\00", align 1

; Function Attrs: inlinehint nounwind uwtable
define internal i32 @const_error() #8 {
  ret i32 -1
}

; Function Attrs: nounwind uwtable
define dso_local i32 @git_mkstemps_mode(ptr noundef %0, i32 noundef %1, i32 noundef %2) #0 {
  %4 = alloca i32, align 4
  %5 = alloca ptr, align 8
  %6 = alloca i32, align 4
  %7 = alloca i32, align 4
  %8 = alloca ptr, align 8
  %9 = alloca i64, align 8
  %10 = alloca i32, align 4
  %11 = alloca i32, align 4
  %12 = alloca i32, align 4
  %13 = alloca i32, align 4
  %14 = alloca i64, align 8
  store ptr %0, ptr %5, align 8, !tbaa !4
  store i32 %1, ptr %6, align 4, !tbaa !11
  store i32 %2, ptr %7, align 4, !tbaa !11
  call void @llvm.lifetime.start.p0(i64 8, ptr %8) #13
  call void @llvm.lifetime.start.p0(i64 8, ptr %9) #13
  call void @llvm.lifetime.start.p0(i64 4, ptr %10) #13
  call void @llvm.lifetime.start.p0(i64 4, ptr %11) #13
  %15 = load ptr, ptr %5, align 8, !tbaa !4
  %16 = call i64 @strlen(ptr noundef %15) #16
  store i64 %16, ptr %9, align 8, !tbaa !9
  %17 = load i64, ptr %9, align 8, !tbaa !9
  %18 = load i32, ptr %6, align 4, !tbaa !11
  %19 = add nsw i32 6, %18
  %20 = sext i32 %19 to i64
  %21 = icmp ult i64 %17, %20
  br i1 %21, label %22, label %24

22:                                               ; preds = %3
  %23 = call ptr @__errno_location() #19
  store i32 22, ptr %23, align 4, !tbaa !11
  store i32 -1, ptr %4, align 4
  store i32 1, ptr %12, align 4
  br label %94

24:                                               ; preds = %3
  %25 = load ptr, ptr %5, align 8, !tbaa !4
  %26 = load i64, ptr %9, align 8, !tbaa !9
  %27 = sub i64 %26, 6
  %28 = load i32, ptr %6, align 4, !tbaa !11
  %29 = sext i32 %28 to i64
  %30 = sub i64 %27, %29
  %31 = getelementptr inbounds nuw i8, ptr %25, i64 %30
  %32 = call i32 @strncmp(ptr noundef %31, ptr noundef @git_mkstemps_mode.x_pattern, i64 noundef 6) #16
  %33 = icmp ne i32 %32, 0
  br i1 %33, label %34, label %36

34:                                               ; preds = %24
  %35 = call ptr @__errno_location() #19
  store i32 22, ptr %35, align 4, !tbaa !11
  store i32 -1, ptr %4, align 4
  store i32 1, ptr %12, align 4
  br label %94

36:                                               ; preds = %24
  %37 = load ptr, ptr %5, align 8, !tbaa !4
  %38 = load i64, ptr %9, align 8, !tbaa !9
  %39 = sub i64 %38, 6
  %40 = load i32, ptr %6, align 4, !tbaa !11
  %41 = sext i32 %40 to i64
  %42 = sub i64 %39, %41
  %43 = getelementptr inbounds nuw i8, ptr %37, i64 %42
  store ptr %43, ptr %8, align 8, !tbaa !4
  store i32 0, ptr %11, align 4, !tbaa !11
  br label %44

44:                                               ; preds = %88, %36
  %45 = load i32, ptr %11, align 4, !tbaa !11
  %46 = icmp slt i32 %45, 16384
  br i1 %46, label %47, label %91

47:                                               ; preds = %44
  call void @llvm.lifetime.start.p0(i64 4, ptr %13) #13
  call void @llvm.lifetime.start.p0(i64 8, ptr %14) #13
  %48 = call i32 @csprng_bytes(ptr noundef %14, i64 noundef 8, i32 noundef 0)
  %49 = icmp slt i32 %48, 0
  br i1 %49, label %50, label %53

50:                                               ; preds = %47
  %51 = call i32 (ptr, ...) @error_errno(ptr noundef @.str.14)
  %52 = call i32 @const_error()
  store i32 %52, ptr %4, align 4
  store i32 1, ptr %12, align 4
  br label %85

53:                                               ; preds = %47
  store i32 0, ptr %13, align 4, !tbaa !11
  br label %54

54:                                               ; preds = %68, %53
  %55 = load i32, ptr %13, align 4, !tbaa !11
  %56 = icmp slt i32 %55, 6
  br i1 %56, label %57, label %71

57:                                               ; preds = %54
  %58 = load i64, ptr %14, align 8, !tbaa !9
  %59 = urem i64 %58, 62
  %60 = getelementptr inbounds nuw [63 x i8], ptr @git_mkstemps_mode.letters, i64 0, i64 %59
  %61 = load i8, ptr %60, align 1, !tbaa !14
  %62 = load ptr, ptr %8, align 8, !tbaa !4
  %63 = load i32, ptr %13, align 4, !tbaa !11
  %64 = sext i32 %63 to i64
  %65 = getelementptr inbounds i8, ptr %62, i64 %64
  store i8 %61, ptr %65, align 1, !tbaa !14
  %66 = load i64, ptr %14, align 8, !tbaa !9
  %67 = udiv i64 %66, 62
  store i64 %67, ptr %14, align 8, !tbaa !9
  br label %68

68:                                               ; preds = %57
  %69 = load i32, ptr %13, align 4, !tbaa !11
  %70 = add nsw i32 %69, 1
  store i32 %70, ptr %13, align 4, !tbaa !11
  br label %54, !llvm.loop !26

71:                                               ; preds = %54
  %72 = load ptr, ptr %5, align 8, !tbaa !4
  %73 = load i32, ptr %7, align 4, !tbaa !11
  %74 = call i32 (ptr, i32, ...) @open64(ptr noundef %72, i32 noundef 194, i32 noundef %73)
  store i32 %74, ptr %10, align 4, !tbaa !11
  %75 = load i32, ptr %10, align 4, !tbaa !11
  %76 = icmp sge i32 %75, 0
  br i1 %76, label %77, label %79

77:                                               ; preds = %71
  %78 = load i32, ptr %10, align 4, !tbaa !11
  store i32 %78, ptr %4, align 4
  store i32 1, ptr %12, align 4
  br label %85

79:                                               ; preds = %71
  %80 = call ptr @__errno_location() #19
  %81 = load i32, ptr %80, align 4, !tbaa !11
  %82 = icmp ne i32 %81, 17
  br i1 %82, label %83, label %84

83:                                               ; preds = %79
  store i32 2, ptr %12, align 4
  br label %85

84:                                               ; preds = %79
  store i32 0, ptr %12, align 4
  br label %85

85:                                               ; preds = %84, %83, %77, %50
  call void @llvm.lifetime.end.p0(i64 8, ptr %14) #13
  call void @llvm.lifetime.end.p0(i64 4, ptr %13) #13
  %86 = load i32, ptr %12, align 4
  switch i32 %86, label %94 [
    i32 0, label %87
    i32 2, label %91
  ]

87:                                               ; preds = %85
  br label %88

88:                                               ; preds = %87
  %89 = load i32, ptr %11, align 4, !tbaa !11
  %90 = add nsw i32 %89, 1
  store i32 %90, ptr %11, align 4, !tbaa !11
  br label %44, !llvm.loop !27

91:                                               ; preds = %85, %44
  %92 = load ptr, ptr %5, align 8, !tbaa !4
  %93 = getelementptr inbounds i8, ptr %92, i64 0
  store i8 0, ptr %93, align 1, !tbaa !14
  store i32 -1, ptr %4, align 4
  store i32 1, ptr %12, align 4
  br label %94

94:                                               ; preds = %91, %85, %34, %22
  call void @llvm.lifetime.end.p0(i64 4, ptr %11) #13
  call void @llvm.lifetime.end.p0(i64 4, ptr %10) #13
  call void @llvm.lifetime.end.p0(i64 8, ptr %9) #13
  call void @llvm.lifetime.end.p0(i64 8, ptr %8) #13
  %95 = load i32, ptr %4, align 4
  ret i32 %95
}