; Function Attrs: nounwind uwtable
define dso_local range(i32 -1, -2147483648) i32 @git_mkstemps_mode(ptr noundef captures(none) %0, i32 noundef %1, i32 noundef %2) local_unnamed_addr #0 {
  %4 = alloca i64, align 8
  %5 = tail call i64 @strlen(ptr noundef nonnull dereferenceable(1) %0) #23
  %6 = add nsw i32 %1, 6
  %7 = sext i32 %6 to i64
  %8 = icmp ult i64 %5, %7
  br i1 %8, label %9, label %11

9:                                                ; preds = %3
  %10 = tail call ptr @__errno_location() #26
  store i32 22, ptr %10, align 4, !tbaa !9
  br label %36

11:                                               ; preds = %3
  %12 = sext i32 %1 to i64
  %reass.sub = sub i64 %5, %12
  %13 = getelementptr i8, ptr %0, i64 %reass.sub
  %14 = getelementptr i8, ptr %13, i64 -6
  %15 = tail call i32 @strncmp(ptr noundef nonnull dereferenceable(1) %14, ptr noundef nonnull dereferenceable(7) @git_mkstemps_mode.x_pattern, i64 noundef 6) #23
  %.not = icmp eq i32 %15, 0
  br i1 %.not, label %.preheader33, label %16

16:                                               ; preds = %11
  %17 = tail call ptr @__errno_location() #26
  store i32 22, ptr %17, align 4, !tbaa !9
  br label %36

.preheader33:                                     ; preds = %11, %32
  %.02237 = phi i32 [ %35, %32 ], [ 0, %11 ]
  call void @llvm.lifetime.start.p0(i64 8, ptr nonnull %4) #20
  %18 = call i32 @csprng_bytes(ptr noundef nonnull %4, i64 noundef 8, i32 poison)
  %19 = icmp slt i32 %18, 0
  br i1 %19, label %20, label %.preheader

.preheader:                                       ; preds = %.preheader33
  %.promoted = load i64, ptr %4, align 8, !tbaa !4
  br label %22

20:                                               ; preds = %.preheader33
  %21 = tail call i32 (ptr, ...) @error_errno(ptr noundef nonnull @.str.14) #20
  br label %.thread

22:                                               ; preds = %.preheader, %22
  %indvars.iv = phi i64 [ 0, %.preheader ], [ %indvars.iv.next, %22 ]
  %23 = phi i64 [ %.promoted, %.preheader ], [ %28, %22 ]
  %24 = urem i64 %23, 62
  %25 = getelementptr inbounds nuw [63 x i8], ptr @git_mkstemps_mode.letters, i64 0, i64 %24
  %26 = load i8, ptr %25, align 1, !tbaa !8
  %27 = getelementptr inbounds nuw i8, ptr %14, i64 %indvars.iv
  store i8 %26, ptr %27, align 1, !tbaa !8
  %28 = udiv i64 %23, 62
  %indvars.iv.next = add nuw nsw i64 %indvars.iv, 1
  %exitcond.not = icmp eq i64 %indvars.iv.next, 6
  br i1 %exitcond.not, label %29, label %22, !llvm.loop !19

29:                                               ; preds = %22
  %30 = tail call i32 (ptr, i32, ...) @open64(ptr noundef nonnull %0, i32 noundef 194, i32 noundef %2) #20
  %31 = icmp sgt i32 %30, -1
  br i1 %31, label %.thread, label %32

32:                                               ; preds = %29
  %33 = tail call ptr @__errno_location() #26
  %34 = load i32, ptr %33, align 4, !tbaa !9
  %.not26 = icmp ne i32 %34, 17
  call void @llvm.lifetime.end.p0(i64 8, ptr nonnull %4) #20
  %35 = add nuw nsw i32 %.02237, 1
  %exitcond42.not = icmp eq i32 %35, 16384
  %or.cond = select i1 %.not26, i1 true, i1 %exitcond42.not
  br i1 %or.cond, label %.loopexit, label %.preheader33, !llvm.loop !20

.thread:                                          ; preds = %29, %20
  %.2.ph = phi i32 [ -1, %20 ], [ %30, %29 ]
  call void @llvm.lifetime.end.p0(i64 8, ptr nonnull %4) #20
  br label %36

.loopexit:                                        ; preds = %32
  store i8 0, ptr %0, align 1, !tbaa !8
  br label %36

36:                                               ; preds = %.thread, %.loopexit, %16, %9
  %.023 = phi i32 [ -1, %9 ], [ -1, %16 ], [ -1, %.loopexit ], [ %.2.ph, %.thread ]
  ret i32 %.023
}